target datalayout = "e-m:e-p270:32:32-p271:32:32-p272:64:64-i64:64-i128:128-f80:128-n8:16:32:64-S128"
target triple = "x86_64-unknown-linux-gnu"

%"class.v8::LocalBase.3" = type { %"class.v8::IndirectHandleBase" }
%"class.v8::IndirectHandleBase" = type { ptr }
%"class.v8::Local.2" = type { %"class.v8::LocalBase.3" }
%"class.v8::Local" = type { %"class.v8::LocalBase" }
%"class.v8::LocalBase" = type { %"class.v8::IndirectHandleBase" }
%"class.v8::MaybeLocal" = type { %"class.v8::Local.2" }
%"struct.v8::DeserializeInternalFieldsCallback" = type { ptr, ptr }
%"class.v8::Maybe" = type { i8, i8 }
%"class.v8::Local.508" = type { %"class.v8::LocalBase.509" }
%"class.v8::LocalBase.509" = type { %"class.v8::IndirectHandleBase" }
%"class.v8::MaybeLocal.510" = type { %"class.v8::Local.508" }

; Function Attrs: mustprogress nounwind uwtable
define linkonce_odr dso_local void @_ZN2v85MaybeIbEC2Ev(ptr noundef nonnull align 1 dereferenceable(2) %this) unnamed_addr #4 comdat align 2 {
entry:
  %this.addr = alloca ptr, align 8
  store ptr %this, ptr %this.addr, align 8
  %this1 = load ptr, ptr %this.addr, align 8
  %has_value_ = getelementptr inbounds %"class.v8::Maybe", ptr %this1, i32 0, i32 0
  store i8 0, ptr %has_value_, align 1
  ret void
}

; Function Attrs: mustprogress nounwind uwtable
define linkonce_odr dso_local i16 @_ZN2v87NothingIbEENS_5MaybeIT_EEv() #4 comdat {
entry:
  %retval = alloca %"class.v8::Maybe", align 1
  call void @_ZN2v85MaybeIbEC2Ev(ptr noundef nonnull align 1 dereferenceable(2) %retval)
  %0 = load i16, ptr %retval, align 1
  ret i16 %0
}

; Function Attrs: mustprogress nounwind uwtable
define dso_local i16 @_ZN4node17InitializeContextEN2v85LocalINS0_7ContextEEE(ptr %context.coerce) #4 {
entry:
  %this.addr.i = alloca ptr, align 8
  %retval = alloca %"class.v8::Maybe", align 1
  %context = alloca %"class.v8::Local", align 8
  %ref.tmp = alloca %"class.v8::Maybe", align 1
  %agg.tmp = alloca %"class.v8::Local", align 8
  %agg.tmp8 = alloca %"class.v8::Local", align 8
  %coerce.dive = getelementptr inbounds %"class.v8::Local", ptr %context, i32 0, i32 0
  %coerce.dive1 = getelementptr inbounds %"class.v8::LocalBase", ptr %coerce.dive, i32 0, i32 0
  %coerce.dive2 = getelementptr inbounds %"class.v8::IndirectHandleBase", ptr %coerce.dive1, i32 0, i32 0
  store ptr %context.coerce, ptr %coerce.dive2, align 8
  call void @llvm.memcpy.p0.p0.i64(ptr align 8 %agg.tmp, ptr align 8 %context, i64 8, i1 false)
  %coerce.dive3 = getelementptr inbounds %"class.v8::Local", ptr %agg.tmp, i32 0, i32 0
  %coerce.dive4 = getelementptr inbounds %"class.v8::LocalBase", ptr %coerce.dive3, i32 0, i32 0
  %coerce.dive5 = getelementptr inbounds %"class.v8::IndirectHandleBase", ptr %coerce.dive4, i32 0, i32 0
  %0 = load ptr, ptr %coerce.dive5, align 8
  %call = call i16 @_ZN4node32InitializeMainContextForSnapshotEN2v85LocalINS0_7ContextEEE(ptr %0)
  store i16 %call, ptr %ref.tmp, align 1
  store ptr %ref.tmp, ptr %this.addr.i, align 8
  %this1.i = load ptr, ptr %this.addr.i, align 8
  %1 = load i8, ptr %this1.i, align 1
  %tobool.i = trunc i8 %1 to i1
  %lnot.i = xor i1 %tobool.i, true
  br i1 %lnot.i, label %if.then, label %if.end

if.then:                                          ; preds = %entry
  %call7 = call i16 @_ZN2v87NothingIbEENS_5MaybeIT_EEv()
  store i16 %call7, ptr %retval, align 1
  br label %return

if.end:                                           ; preds = %entry
  call void @llvm.memcpy.p0.p0.i64(ptr align 8 %agg.tmp8, ptr align 8 %context, i64 8, i1 false)
  %coerce.dive9 = getelementptr inbounds %"class.v8::Local", ptr %agg.tmp8, i32 0, i32 0
  %coerce.dive10 = getelementptr inbounds %"class.v8::LocalBase", ptr %coerce.dive9, i32 0, i32 0
  %coerce.dive11 = getelementptr inbounds %"class.v8::IndirectHandleBase", ptr %coerce.dive10, i32 0, i32 0
  %2 = load ptr, ptr %coerce.dive11, align 8
  %call12 = call i16 @_ZN4node24InitializeContextRuntimeEN2v85LocalINS0_7ContextEEE(ptr %2)
  store i16 %call12, ptr %retval, align 1
  br label %return

return:                                           ; preds = %if.end, %if.then
  %3 = load i16, ptr %retval, align 1
  ret i16 %3
}

; Function Attrs: mustprogress nounwind uwtable
define linkonce_odr dso_local void @_ZN2v833DeserializeInternalFieldsCallbackC2EPFvNS_5LocalINS_6ObjectEEEiNS_11StartupDataEPvES5_(ptr noundef nonnull align 8 dereferenceable(16) %this, ptr noundef %function, ptr noundef %data_arg) unnamed_addr #4 comdat align 2 {
entry:
  %this.addr = alloca ptr, align 8
  %function.addr = alloca ptr, align 8
  %data_arg.addr = alloca ptr, align 8
  store ptr %this, ptr %this.addr, align 8
  store ptr %function, ptr %function.addr, align 8
  store ptr %data_arg, ptr %data_arg.addr, align 8
  %this1 = load ptr, ptr %this.addr, align 8
  %callback = getelementptr inbounds %"struct.v8::DeserializeInternalFieldsCallback", ptr %this1, i32 0, i32 0
  %0 = load ptr, ptr %function.addr, align 8
  store ptr %0, ptr %callback, align 8
  %data = getelementptr inbounds %"struct.v8::DeserializeInternalFieldsCallback", ptr %this1, i32 0, i32 1
  %1 = load ptr, ptr %data_arg.addr, align 8
  store ptr %1, ptr %data, align 8
  ret void
}

; Function Attrs: mustprogress nounwind uwtable
define dso_local ptr @_ZN4node10NewContextEPN2v87IsolateENS0_5LocalINS0_14ObjectTemplateEEE(ptr noundef %isolate, ptr %object_template.coerce) #4 {
entry:
  %this.addr.i.i43 = alloca ptr, align 8
  %this.addr.i44 = alloca ptr, align 8
  %this.addr.i41 = alloca ptr, align 8
  %this.addr.i39 = alloca ptr, align 8
  %this.addr.i37 = alloca ptr, align 8
  %that.i = alloca %"class.v8::Local.508", align 8
  %this.addr.i36 = alloca ptr, align 8
  %this.addr.i34 = alloca ptr, align 8
  %this.addr.i.i = alloca ptr, align 8
  %this.addr.i32 = alloca ptr, align 8
  %this.addr.i = alloca ptr, align 8
  %retval = alloca %"class.v8::Local", align 8
  %object_template = alloca %"class.v8::Local.508", align 8
  %isolate.addr = alloca ptr, align 8
  %context = alloca %"class.v8::Local", align 8
  %agg.tmp = alloca %"class.v8::MaybeLocal.510", align 8
  %agg.tmp3 = alloca %"class.v8::Local.508", align 8
  %agg.tmp7 = alloca %"class.v8::MaybeLocal", align 8
  %agg.tmp8 = alloca %"struct.v8::DeserializeInternalFieldsCallback", align 8
  %ref.tmp = alloca %"class.v8::Maybe", align 1
  %agg.tmp21 = alloca %"class.v8::Local", align 8
  %coerce.dive = getelementptr inbounds %"class.v8::Local.508", ptr %object_template, i32 0, i32 0
  %coerce.dive1 = getelementptr inbounds %"class.v8::LocalBase.509", ptr %coerce.dive, i32 0, i32 0
  %coerce.dive2 = getelementptr inbounds %"class.v8::IndirectHandleBase", ptr %coerce.dive1, i32 0, i32 0
  store ptr %object_template.coerce, ptr %coerce.dive2, align 8
  store ptr %isolate, ptr %isolate.addr, align 8
  %0 = load ptr, ptr %isolate.addr, align 8
  call void @llvm.memcpy.p0.p0.i64(ptr align 8 %agg.tmp3, ptr align 8 %object_template, i64 8, i1 false)
  %coerce.dive4 = getelementptr inbounds %"class.v8::Local.508", ptr %agg.tmp3, i32 0, i32 0
  %coerce.dive5 = getelementptr inbounds %"class.v8::LocalBase.509", ptr %coerce.dive4, i32 0, i32 0
  %coerce.dive6 = getelementptr inbounds %"class.v8::IndirectHandleBase", ptr %coerce.dive5, i32 0, i32 0
  %1 = load ptr, ptr %coerce.dive6, align 8
  store ptr %1, ptr %that.i, align 8
  store ptr %agg.tmp, ptr %this.addr.i36, align 8
  %this3.i = load ptr, ptr %this.addr.i36, align 8
  call void @llvm.memcpy.p0.p0.i64(ptr align 8 %this3.i, ptr align 8 %that.i, i64 8, i1 false)
  store ptr %agg.tmp7, ptr %this.addr.i32, align 8
  %this1.i33 = load ptr, ptr %this.addr.i32, align 8
  call void @llvm.memset.p0.i64(ptr align 8 %this1.i33, i8 0, i64 8, i1 false)
  store ptr %this1.i33, ptr %this.addr.i.i, align 8
  %this1.i.i = load ptr, ptr %this.addr.i.i, align 8
  store ptr %this1.i.i, ptr %this.addr.i39, align 8
  %this1.i40 = load ptr, ptr %this.addr.i39, align 8
  store ptr %this1.i40, ptr %this.addr.i41, align 8
  %this1.i42 = load ptr, ptr %this.addr.i41, align 8
  store ptr null, ptr %this1.i42, align 8
  call void @_ZN2v833DeserializeInternalFieldsCallbackC2EPFvNS_5LocalINS_6ObjectEEEiNS_11StartupDataEPvES5_(ptr noundef nonnull align 8 dereferenceable(16) %agg.tmp8, ptr noundef null, ptr noundef null)
  %coerce.dive9 = getelementptr inbounds %"class.v8::MaybeLocal.510", ptr %agg.tmp, i32 0, i32 0
  %coerce.dive10 = getelementptr inbounds %"class.v8::Local.508", ptr %coerce.dive9, i32 0, i32 0
  %coerce.dive11 = getelementptr inbounds %"class.v8::LocalBase.509", ptr %coerce.dive10, i32 0, i32 0
  %coerce.dive12 = getelementptr inbounds %"class.v8::IndirectHandleBase", ptr %coerce.dive11, i32 0, i32 0
  %2 = load ptr, ptr %coerce.dive12, align 8
  %coerce.dive13 = getelementptr inbounds %"class.v8::MaybeLocal", ptr %agg.tmp7, i32 0, i32 0
  %coerce.dive14 = getelementptr inbounds %"class.v8::Local.2", ptr %coerce.dive13, i32 0, i32 0
  %coerce.dive15 = getelementptr inbounds %"class.v8::LocalBase.3", ptr %coerce.dive14, i32 0, i32 0
  %coerce.dive16 = getelementptr inbounds %"class.v8::IndirectHandleBase", ptr %coerce.dive15, i32 0, i32 0
  %3 = load ptr, ptr %coerce.dive16, align 8
  %4 = getelementptr inbounds { ptr, ptr }, ptr %agg.tmp8, i32 0, i32 0
  %5 = load ptr, ptr %4, align 8
  %6 = getelementptr inbounds { ptr, ptr }, ptr %agg.tmp8, i32 0, i32 1
  %7 = load ptr, ptr %6, align 8
  %call = call ptr @_ZN2v87Context3NewEPNS_7IsolateEPNS_22ExtensionConfigurationENS_10MaybeLocalINS_14ObjectTemplateEEENS5_INS_5ValueEEENS_33DeserializeInternalFieldsCallbackEPNS_14MicrotaskQueueE(ptr noundef %0, ptr noundef null, ptr %2, ptr %3, ptr %5, ptr %7, ptr noundef null)
  %coerce.dive17 = getelementptr inbounds %"class.v8::Local", ptr %context, i32 0, i32 0
  %coerce.dive18 = getelementptr inbounds %"class.v8::LocalBase", ptr %coerce.dive17, i32 0, i32 0
  %coerce.dive19 = getelementptr inbounds %"class.v8::IndirectHandleBase", ptr %coerce.dive18, i32 0, i32 0
  store ptr %call, ptr %coerce.dive19, align 8
  store ptr %context, ptr %this.addr.i, align 8
  %this1.i = load ptr, ptr %this.addr.i, align 8
  %8 = load ptr, ptr %this1.i, align 8
  %cmp.i = icmp eq ptr %8, null
  br i1 %cmp.i, label %if.then, label %if.end

if.then:                                          ; preds = %entry
  call void @llvm.memcpy.p0.p0.i64(ptr align 8 %retval, ptr align 8 %context, i64 8, i1 false)
  br label %return

if.end:                                           ; preds = %entry
  call void @llvm.memcpy.p0.p0.i64(ptr align 8 %agg.tmp21, ptr align 8 %context, i64 8, i1 false)
  %coerce.dive22 = getelementptr inbounds %"class.v8::Local", ptr %agg.tmp21, i32 0, i32 0
  %coerce.dive23 = getelementptr inbounds %"class.v8::LocalBase", ptr %coerce.dive22, i32 0, i32 0
  %coerce.dive24 = getelementptr inbounds %"class.v8::IndirectHandleBase", ptr %coerce.dive23, i32 0, i32 0
  %9 = load ptr, ptr %coerce.dive24, align 8
  %call25 = call i16 @_ZN4node17InitializeContextEN2v85LocalINS0_7ContextEEE(ptr %9)
  store i16 %call25, ptr %ref.tmp, align 1
  store ptr %ref.tmp, ptr %this.addr.i34, align 8
  %this1.i35 = load ptr, ptr %this.addr.i34, align 8
  %10 = load i8, ptr %this1.i35, align 1
  %tobool.i = trunc i8 %10 to i1
  %lnot.i = xor i1 %tobool.i, true
  br i1 %lnot.i, label %if.then27, label %if.end28

if.then27:                                        ; preds = %if.end
  call void @llvm.memset.p0.i64(ptr align 8 %retval, i8 0, i64 8, i1 false)
  store ptr %retval, ptr %this.addr.i37, align 8
  %this1.i38 = load ptr, ptr %this.addr.i37, align 8
  store ptr %this1.i38, ptr %this.addr.i44, align 8
  %this1.i45 = load ptr, ptr %this.addr.i44, align 8
  store ptr %this1.i45, ptr %this.addr.i.i43, align 8
  %this1.i.i46 = load ptr, ptr %this.addr.i.i43, align 8
  store ptr null, ptr %this1.i.i46, align 8
  br label %return

if.end28:                                         ; preds = %if.end
  call void @llvm.memcpy.p0.p0.i64(ptr align 8 %retval, ptr align 8 %context, i64 8, i1 false)
  br label %return

return:                                           ; preds = %if.end28, %if.then27, %if.then
  %coerce.dive29 = getelementptr inbounds %"class.v8::Local", ptr %retval, i32 0, i32 0
  %coerce.dive30 = getelementptr inbounds %"class.v8::LocalBase", ptr %coerce.dive29, i32 0, i32 0
  %coerce.dive31 = getelementptr inbounds %"class.v8::IndirectHandleBase", ptr %coerce.dive30, i32 0, i32 0
  %11 = load ptr, ptr %coerce.dive31, align 8
  ret ptr %11
}