; Function Attrs: mustprogress nounwind uwtable
define dso_local ptr @_ZN4node10NewContextEPN2v87IsolateENS0_5LocalINS0_14ObjectTemplateEEE(ptr noundef %isolate, ptr %object_template.coerce) local_unnamed_addr #3 {
entry:
  %call = tail call ptr @_ZN2v87Context3NewEPNS_7IsolateEPNS_22ExtensionConfigurationENS_10MaybeLocalINS_14ObjectTemplateEEENS5_INS_5ValueEEENS_33DeserializeInternalFieldsCallbackEPNS_14MicrotaskQueueE(ptr noundef %isolate, ptr noundef null, ptr %object_template.coerce, ptr null, ptr null, ptr null, ptr noundef null) #12
  %cmp.i = icmp eq ptr %call, null
  br i1 %cmp.i, label %return, label %if.end

if.end:                                           ; preds = %entry
  %call.i = tail call i16 @_ZN4node32InitializeMainContextForSnapshotEN2v85LocalINS0_7ContextEEE(ptr %call)
  %0 = and i16 %call.i, 1
  %tobool.i.not.i = icmp eq i16 %0, 0
  br i1 %tobool.i.not.i, label %return, label %if.end.i

if.end.i:                                         ; preds = %if.end
  %call12.i = tail call i16 @_ZN4node24InitializeContextRuntimeEN2v85LocalINS0_7ContextEEE(ptr %call)
  %1 = and i16 %call12.i, 1
  %2 = icmp eq i16 %1, 0
  %3 = select i1 %2, ptr null, ptr %call
  br label %return

return:                                           ; preds = %if.end.i, %if.end, %entry
  %retval.sroa.0.0 = phi ptr [ null, %entry ], [ %3, %if.end.i ], [ null, %if.end ]
  ret ptr %retval.sroa.0.0
}